Certificate:
    Data:
        Version: 3 (0x2)
        Serial Number: 1 (0x1)
    Signature Algorithm: sha256WithRSAEncryption
        Issuer: CN=devcert
        Validity
            Not Before: May 15 08:43:40 2020 GMT
            Not After : Aug 18 08:43:40 2022 GMT
        Subject: CN=localhost
        Subject Public Key Info:
            Public Key Algorithm: rsaEncryption
                Public-Key: (2048 bit)
                Modulus:
                    00:b6:5d:c4:00:35:ec:0f:8f:8d:00:13:64:62:c8:
                    9f:8f:85:93:06:b6:71:48:7a:b2:4e:55:12:d4:c2:
                    04:2c:c7:f6:35:1f:fa:30:87:16:2a:56:d0:b1:96:
                    fc:7c:b8:69:45:57:68:50:58:6f:04:4d:81:e5:c4:
                    ab:e6:c9:e8:23:92:ea:2e:09:57:94:2d:71:d0:ed:
                    17:7e:ff:51:b0:3f:93:ea:8f:70:b8:48:94:50:e8:
                    8d:60:e5:91:f5:0b:ac:bc:7e:3b:b7:1c:10:aa:04:
                    e5:8c:a7:2c:b8:d6:57:48:d1:e6:ca:31:f8:ab:d2:
                    78:45:80:21:33:77:94:48:87:21:75:15:25:4b:d0:
                    dd:f0:ba:b4:a7:0a:2c:0b:54:46:48:b9:99:ed:77:
                    73:27:44:62:b0:6f:1a:63:0c:0a:da:de:7e:8c:c0:
                    5c:ce:f5:02:a2:4c:94:2d:f7:77:7b:51:ac:ca:bc:
                    b2:ae:9f:db:ec:72:4e:07:58:ed:5e:9c:aa:5c:68:
                    f3:41:7e:1e:43:ba:21:0d:89:70:0e:d4:57:3f:3f:
                    ac:36:a5:9f:ff:81:99:3a:fb:2f:22:14:68:8a:0a:
                    d5:37:4d:88:44:48:45:c8:f5:eb:75:59:ff:46:fd:
                    c1:5b:c6:e4:83:3f:cd:60:d1:12:e0:bc:12:55:dc:
                    d4:1f
                Exponent: 65537 (0x10001)
        X509v3 extensions:
            X509v3 Basic Constraints: critical
                CA:FALSE
            X509v3 Subject Key Identifier: 
                1F:82:30:DF:20:1A:1C:35:48:72:D3:6C:EE:63:79:01:F2:69:DB:17
            X509v3 Authority Key Identifier: 
                keyid:FC:C2:0A:A3:B3:1B:3A:C6:6B:A0:20:29:0A:AC:2C:7F:B7:F3:8E:8E
                DirName:/CN=devcert
                serial:C0:38:16:61:02:D5:CA:48

            X509v3 Key Usage: critical
                Digital Signature, Key Encipherment
            X509v3 Extended Key Usage: 
                TLS Web Server Authentication
            X509v3 Subject Alternative Name: 
                DNS:localhost, DNS:*.localhost
    Signature Algorithm: sha256WithRSAEncryption
         45:61:cf:e9:0c:7f:03:03:5b:ee:1e:24:b1:75:ea:68:5c:1d:
         14:47:98:f7:f3:6c:d7:83:54:0f:44:89:7b:75:c0:d0:a5:52:
         a8:da:2a:50:22:36:43:24:a2:f4:56:a4:52:3f:30:46:ff:e4:
         45:01:8f:d4:1e:ec:4b:17:ef:3d:9d:98:b6:d6:58:f3:2a:03:
         eb:6f:26:59:c8:5b:e8:b4:f0:97:e3:36:d5:8f:de:d3:0f:9f:
         6c:1a:2f:3a:0c:39:46:4c:a1:0c:a5:7c:02:5b:5c:63:06:b5:
         72:95:85:bd:67:33:6b:ad:10:94:a2:82:0a:5c:b5:35:e4:cd:
         6a:6b:ae:67:b9:93:33:3d:0e:89:ec:93:2d:f4:7f:dc:3c:4d:
         0a:fc:56:9b:95:a6:05:af:ee:7e:bf:be:47:27:cc:21:ba:81:
         7f:e6:71:22:08:f9:64:d2:15:b1:4b:49:6a:63:2f:77:b1:af:
         f0:07:c1:51:a2:0b:e1:87:b0:cb:a0:fb:64:77:c5:e3:a1:92:
         2d:e1:bc:e8:be:cf:cc:b3:84:28:f4:ea:cd:ba:02:dd:3c:a5:
         1f:f7:50:3a:c1:cc:a1:cd:49:0d:67:72:91:5d:a9:43:c5:2e:
         04:d4:63:d1:62:7c:f9:3b:a8:d6:32:55:2d:4a:46:9a:d3:76:
         87:61:6d:fa
-----BEGIN CERTIFICATE-----
MIIDXjCCAkagAwIBAgIBATANBgkqhkiG9w0BAQsFADASMRAwDgYDVQQDDAdkZXZj
ZXJ0MB4XDTIwMDUxNTA4NDM0MFoXDTIyMDgxODA4NDM0MFowFDESMBAGA1UEAwwJ
bG9jYWxob3N0MIIBIjANBgkqhkiG9w0BAQEFAAOCAQ8AMIIBCgKCAQEAtl3EADXs
D4+NABNkYsifj4WTBrZxSHqyTlUS1MIELMf2NR/6MIcWKlbQsZb8fLhpRVdoUFhv
BE2B5cSr5snoI5LqLglXlC1x0O0Xfv9RsD+T6o9wuEiUUOiNYOWR9QusvH47txwQ
qgTljKcsuNZXSNHmyjH4q9J4RYAhM3eUSIchdRUlS9Dd8Lq0pwosC1RGSLmZ7Xdz
J0RisG8aYwwK2t5+jMBczvUCokyULfd3e1Gsyryyrp/b7HJOB1jtXpyqXGjzQX4e
Q7ohDYlwDtRXPz+sNqWf/4GZOvsvIhRoigrVN02IREhFyPXrdVn/Rv3BW8bkgz/N
YNES4LwSVdzUHwIDAQABo4G8MIG5MAwGA1UdEwEB/wQCMAAwHQYDVR0OBBYEFB+C
MN8gGhw1SHLTbO5jeQHyadsXMEIGA1UdIwQ7MDmAFPzCCqOzGzrGa6AgKQqsLH+3
846OoRakFDASMRAwDgYDVQQDDAdkZXZjZXJ0ggkAwDgWYQLVykgwDgYDVR0PAQH/
BAQDAgWgMBMGA1UdJQQMMAoGCCsGAQUFBwMBMCEGA1UdEQQaMBiCCWxvY2FsaG9z
dIILKi5sb2NhbGhvc3QwDQYJKoZIhvcNAQELBQADggEBAEVhz+kMfwMDW+4eJLF1
6mhcHRRHmPfzbNeDVA9EiXt1wNClUqjaKlAiNkMkovRWpFI/MEb/5EUBj9Qe7EsX
7z2dmLbWWPMqA+tvJlnIW+i08JfjNtWP3tMPn2waLzoMOUZMoQylfAJbXGMGtXKV
hb1nM2utEJSiggpctTXkzWprrme5kzM9Donsky30f9w8TQr8VpuVpgWv7n6/vkcn
zCG6gX/mcSII+WTSFbFLSWpjL3exr/AHwVGiC+GHsMug+2R3xeOhki3hvOi+z8yz
hCj06s26At08pR/3UDrBzKHNSQ1ncpFdqUPFLgTUY9FifPk7qNYyVS1KRprTdodh
bfo=
-----END CERTIFICATE-----
